target datalayout = "e-m:e-p270:32:32-p271:32:32-p272:64:64-i64:64-i128:128-f80:128-n8:16:32:64-S128"
target triple = "x86_64-pc-linux-gnu"

%"struct.Luau::NotNull" = type { ptr }
%"struct.Luau::NotNull.5" = type { ptr }
%"struct.Luau::NotNull.6" = type { ptr }
%"struct.Luau::DataFlowGraph" = type { %"struct.Luau::NotNull.5", %"struct.Luau::NotNull.6", %"class.Luau::DenseHashMap", %"class.Luau::DenseHashMap.7", %"class.Luau::DenseHashMap.10", %"class.Luau::DenseHashMap", %"class.Luau::DenseHashMap.13" }
%"class.Luau::DenseHashMap.7" = type { %"class.Luau::detail::DenseHashTable.8" }
%"class.Luau::detail::DenseHashTable.8" = type <{ ptr, i64, i64, ptr, [8 x i8] }>
%"class.Luau::DenseHashMap.10" = type { %"class.Luau::detail::DenseHashTable.11" }
%"class.Luau::detail::DenseHashTable.11" = type <{ ptr, i64, i64, ptr, [8 x i8] }>
%"class.Luau::DenseHashMap" = type { %"class.Luau::detail::DenseHashTable" }
%"class.Luau::detail::DenseHashTable" = type <{ ptr, i64, i64, ptr, [8 x i8] }>
%"class.Luau::DenseHashMap.13" = type { %"class.Luau::detail::DenseHashTable.14" }
%"class.Luau::detail::DenseHashTable.14" = type <{ ptr, i64, i64, ptr, [8 x i8] }>
%"struct.Luau::Symbol" = type { ptr, %"struct.Luau::AstName" }
%"struct.Luau::AstName" = type { ptr }
%"struct.Luau::DataFlowGraphBuilder" = type { %"struct.Luau::DataFlowGraph", %"struct.Luau::NotNull.5", %"struct.Luau::NotNull.6", ptr, %"class.std::vector.43", %"class.std::vector.48", %"class.Luau::DenseHashMap.53" }
%"class.std::vector.43" = type { %"struct.std::_Vector_base.44" }
%"struct.std::_Vector_base.44" = type { %"struct.std::_Vector_base<std::unique_ptr<Luau::DfgScope>, std::allocator<std::unique_ptr<Luau::DfgScope>>>::_Vector_impl" }
%"struct.std::_Vector_base<std::unique_ptr<Luau::DfgScope>, std::allocator<std::unique_ptr<Luau::DfgScope>>>::_Vector_impl" = type { %"struct.std::_Vector_base<std::unique_ptr<Luau::DfgScope>, std::allocator<std::unique_ptr<Luau::DfgScope>>>::_Vector_impl_data" }
%"struct.std::_Vector_base<std::unique_ptr<Luau::DfgScope>, std::allocator<std::unique_ptr<Luau::DfgScope>>>::_Vector_impl_data" = type { ptr, ptr, ptr }
%"class.std::vector.48" = type { %"struct.std::_Vector_base.49" }
%"struct.std::_Vector_base.49" = type { %"struct.std::_Vector_base<Luau::DfgScope *, std::allocator<Luau::DfgScope *>>::_Vector_impl" }
%"struct.std::_Vector_base<Luau::DfgScope *, std::allocator<Luau::DfgScope *>>::_Vector_impl" = type { %"struct.std::_Vector_base<Luau::DfgScope *, std::allocator<Luau::DfgScope *>>::_Vector_impl_data" }
%"struct.std::_Vector_base<Luau::DfgScope *, std::allocator<Luau::DfgScope *>>::_Vector_impl_data" = type { ptr, ptr, ptr }
%"class.Luau::DenseHashMap.53" = type { %"class.Luau::detail::DenseHashTable.54" }
%"class.Luau::detail::DenseHashTable.54" = type <{ ptr, i64, i64, %"struct.Luau::Symbol", [8 x i8] }>
%"class.Luau::AstStat.base" = type { %"class.Luau::AstNode.base", i8 }
%"class.Luau::AstNode.base" = type <{ ptr, i32, %"struct.Luau::Location" }>
%"struct.Luau::Location" = type { %"struct.Luau::Position", %"struct.Luau::Position" }
%"struct.Luau::Position" = type { i32, i32 }
%"class.std::vector.65" = type { %"struct.std::_Vector_base.66" }
%"struct.std::_Vector_base.66" = type { %"struct.std::_Vector_base<Luau::NotNull<const Luau::Def>, std::allocator<Luau::NotNull<const Luau::Def>>>::_Vector_impl" }
%"struct.std::_Vector_base<Luau::NotNull<const Luau::Def>, std::allocator<Luau::NotNull<const Luau::Def>>>::_Vector_impl" = type { %"struct.std::_Vector_base<Luau::NotNull<const Luau::Def>, std::allocator<Luau::NotNull<const Luau::Def>>>::_Vector_impl_data" }
%"struct.std::_Vector_base<Luau::NotNull<const Luau::Def>, std::allocator<Luau::NotNull<const Luau::Def>>>::_Vector_impl_data" = type { ptr, ptr, ptr }
%"struct.Luau::DataFlowGraphBuilder::FunctionCapture" = type { %"class.std::vector.65", %"class.std::vector.65", i64 }
%"struct.std::pair.140" = type { %"struct.Luau::Symbol", %"struct.Luau::DataFlowGraphBuilder::FunctionCapture" }
%"class.Luau::AstNode" = type <{ ptr, i32, %"struct.Luau::Location", [4 x i8] }>
%"struct.Luau::DataFlowResult" = type { %"struct.Luau::NotNull", ptr }
%"class.Luau::AstStatFunction" = type { %"class.Luau::AstStat.base", ptr, ptr }
%"class.Luau::AstExprLocal" = type <{ %"class.Luau::AstExpr.base", [4 x i8], ptr, i8, [7 x i8] }>
%"class.Luau::AstExpr.base" = type { %"class.Luau::AstNode.base" }
%class.anon.122 = type { ptr, ptr, ptr }

@_ZN4Luau7AstRttiINS_12AstExprLocalEE5valueE = linkonce_odr dso_local global i32 0, comdat, align 4

; Function Attrs: mustprogress uwtable
define linkonce_odr dso_local void @_ZN4Luau6detail14DenseHashTableINS_6SymbolESt4pairIS2_NS_20DataFlowGraphBuilder15FunctionCaptureEES3_IKS2_S5_ENS0_16ItemInterfaceMapIS2_S5_EESt4hashIS2_ESt8equal_toIS2_EE14rehash_if_fullERS7_(ptr noundef nonnull align 8 dereferenceable(42) %0, ptr noundef nonnull align 8 dereferenceable(16) %1) #2 comdat align 2 {
  %3 = alloca ptr, align 8
  %4 = alloca ptr, align 8
  store ptr %0, ptr %3, align 8, !tbaa !706
  store ptr %1, ptr %4, align 8, !tbaa !109
  %5 = load ptr, ptr %3, align 8
  %6 = getelementptr inbounds nuw %"class.Luau::detail::DenseHashTable.54", ptr %5, i32 0, i32 2
  %7 = load i64, ptr %6, align 8, !tbaa !926
  %8 = getelementptr inbounds nuw %"class.Luau::detail::DenseHashTable.54", ptr %5, i32 0, i32 1
  %9 = load i64, ptr %8, align 8, !tbaa !266
  %10 = mul i64 %9, 3
  %11 = udiv i64 %10, 4
  %12 = icmp uge i64 %7, %11
  br i1 %12, label %13, label %18

13:                                               ; preds = %2
  %14 = load ptr, ptr %4, align 8, !tbaa !109
  %15 = call noundef ptr @_ZNK4Luau6detail14DenseHashTableINS_6SymbolESt4pairIS2_NS_20DataFlowGraphBuilder15FunctionCaptureEES3_IKS2_S5_ENS0_16ItemInterfaceMapIS2_S5_EESt4hashIS2_ESt8equal_toIS2_EE4findERS7_(ptr noundef nonnull align 8 dereferenceable(42) %5, ptr noundef nonnull align 8 dereferenceable(16) %14)
  %16 = icmp ne ptr %15, null
  br i1 %16, label %18, label %17

17:                                               ; preds = %13
  call void @_ZN4Luau6detail14DenseHashTableINS_6SymbolESt4pairIS2_NS_20DataFlowGraphBuilder15FunctionCaptureEES3_IKS2_S5_ENS0_16ItemInterfaceMapIS2_S5_EESt4hashIS2_ESt8equal_toIS2_EE6rehashEv(ptr noundef nonnull align 8 dereferenceable(42) %5)
  br label %18

18:                                               ; preds = %17, %13, %2
  ret void
}

; Function Attrs: mustprogress nounwind uwtable
define linkonce_odr dso_local void @_ZN4Luau7AstNameC2Ev(ptr noundef nonnull align 8 dereferenceable(8) %0) unnamed_addr #4 comdat align 2 {
  %2 = alloca ptr, align 8
  store ptr %0, ptr %2, align 8, !tbaa !478
  %3 = load ptr, ptr %2, align 8
  %4 = getelementptr inbounds nuw %"struct.Luau::AstName", ptr %3, i32 0, i32 0
  store ptr null, ptr %4, align 8, !tbaa !692
  ret void
}

; Function Attrs: mustprogress nounwind uwtable
define linkonce_odr dso_local noundef i32 @_ZN4Luau12AstExprLocal10ClassIndexEv() #4 comdat align 2 {
  %1 = load i32, ptr @_ZN4Luau7AstRttiINS_12AstExprLocalEE5valueE, align 4, !tbaa !4
  ret i32 %1
}

; Function Attrs: mustprogress nounwind uwtable
define linkonce_odr dso_local noundef ptr @_ZNK4Luau7NotNullIKNS_3DefEEcvPS2_Ev(ptr noundef nonnull align 8 dereferenceable(8) %0) #4 comdat align 2 {
  %2 = alloca ptr, align 8
  store ptr %0, ptr %2, align 8, !tbaa !71
  %3 = load ptr, ptr %2, align 8
  %4 = getelementptr inbounds nuw %"struct.Luau::NotNull", ptr %3, i32 0, i32 0
  %5 = load ptr, ptr %4, align 8, !tbaa !73
  ret ptr %5
}

; Function Attrs: mustprogress nounwind uwtable
define linkonce_odr dso_local noundef i64 @_ZNKSt6vectorIN4Luau7NotNullIKNS0_3DefEEESaIS4_EE4sizeEv(ptr noundef nonnull align 8 dereferenceable(24) %0) #4 comdat align 2 {
  %2 = alloca ptr, align 8
  store ptr %0, ptr %2, align 8, !tbaa !221
  %3 = load ptr, ptr %2, align 8
  %4 = getelementptr inbounds nuw %"struct.std::_Vector_base.66", ptr %3, i32 0, i32 0
  %5 = getelementptr inbounds nuw %"struct.std::_Vector_base<Luau::NotNull<const Luau::Def>, std::allocator<Luau::NotNull<const Luau::Def>>>::_Vector_impl_data", ptr %4, i32 0, i32 1
  %6 = load ptr, ptr %5, align 8, !tbaa !259
  %7 = getelementptr inbounds nuw %"struct.std::_Vector_base.66", ptr %3, i32 0, i32 0
  %8 = getelementptr inbounds nuw %"struct.std::_Vector_base<Luau::NotNull<const Luau::Def>, std::allocator<Luau::NotNull<const Luau::Def>>>::_Vector_impl_data", ptr %7, i32 0, i32 0
  %9 = load ptr, ptr %8, align 8, !tbaa !260
  %10 = ptrtoint ptr %6 to i64
  %11 = ptrtoint ptr %9 to i64
  %12 = sub i64 %10, %11
  %13 = sdiv exact i64 %12, 8
  ret i64 %13
}

; Function Attrs: mustprogress uwtable
define linkonce_odr dso_local noundef nonnull align 8 dereferenceable(56) ptr @_ZN4Luau12DenseHashMapINS_6SymbolENS_20DataFlowGraphBuilder15FunctionCaptureESt4hashIS1_ESt8equal_toIS1_EEixERKS1_(ptr noundef nonnull align 8 dereferenceable(48) %0, ptr noundef nonnull align 8 dereferenceable(16) %1) #2 comdat align 2 {
  %3 = alloca ptr, align 8
  %4 = alloca ptr, align 8
  store ptr %0, ptr %3, align 8, !tbaa !191
  store ptr %1, ptr %4, align 8, !tbaa !109
  %5 = load ptr, ptr %3, align 8
  %6 = getelementptr inbounds nuw %"class.Luau::DenseHashMap.53", ptr %5, i32 0, i32 0
  %7 = load ptr, ptr %4, align 8, !tbaa !109
  call void @_ZN4Luau6detail14DenseHashTableINS_6SymbolESt4pairIS2_NS_20DataFlowGraphBuilder15FunctionCaptureEES3_IKS2_S5_ENS0_16ItemInterfaceMapIS2_S5_EESt4hashIS2_ESt8equal_toIS2_EE14rehash_if_fullERS7_(ptr noundef nonnull align 8 dereferenceable(42) %6, ptr noundef nonnull align 8 dereferenceable(16) %7)
  %8 = getelementptr inbounds nuw %"class.Luau::DenseHashMap.53", ptr %5, i32 0, i32 0
  %9 = load ptr, ptr %4, align 8, !tbaa !109
  %10 = call noundef ptr @_ZN4Luau6detail14DenseHashTableINS_6SymbolESt4pairIS2_NS_20DataFlowGraphBuilder15FunctionCaptureEES3_IKS2_S5_ENS0_16ItemInterfaceMapIS2_S5_EESt4hashIS2_ESt8equal_toIS2_EE13insert_unsafeERS7_(ptr noundef nonnull align 8 dereferenceable(42) %8, ptr noundef nonnull align 8 dereferenceable(16) %9)
  %11 = getelementptr inbounds nuw %"struct.std::pair.140", ptr %10, i32 0, i32 1
  ret ptr %11
}

; Function Attrs: mustprogress uwtable
define linkonce_odr dso_local void @_ZN4Luau6SymbolC2EPNS_8AstLocalE(ptr noundef nonnull align 8 dereferenceable(16) %0, ptr noundef %1) unnamed_addr #2 comdat align 2 {
  %3 = alloca ptr, align 8
  %4 = alloca ptr, align 8
  store ptr %0, ptr %3, align 8, !tbaa !109
  store ptr %1, ptr %4, align 8, !tbaa !48
  %5 = load ptr, ptr %3, align 8
  %6 = getelementptr inbounds nuw %"struct.Luau::Symbol", ptr %5, i32 0, i32 0
  %7 = load ptr, ptr %4, align 8, !tbaa !48
  store ptr %7, ptr %6, align 8, !tbaa !190
  %8 = getelementptr inbounds nuw %"struct.Luau::Symbol", ptr %5, i32 0, i32 1
  call void @_ZN4Luau7AstNameC2Ev(ptr noundef nonnull align 8 dereferenceable(8) %8)
  ret void
}

; Function Attrs: mustprogress uwtable
define linkonce_odr dso_local noundef ptr @_ZN4Luau7AstNode2asINS_12AstExprLocalEEEPT_v(ptr noundef nonnull align 8 dereferenceable(28) %0) #2 comdat align 2 {
  %2 = alloca ptr, align 8
  store ptr %0, ptr %2, align 8, !tbaa !324
  %3 = load ptr, ptr %2, align 8
  %4 = getelementptr inbounds nuw %"class.Luau::AstNode", ptr %3, i32 0, i32 1
  %5 = load i32, ptr %4, align 8, !tbaa !326
  %6 = call noundef i32 @_ZN4Luau12AstExprLocal10ClassIndexEv()
  %7 = icmp eq i32 %5, %6
  br i1 %7, label %8, label %9

8:                                                ; preds = %1
  br label %10

9:                                                ; preds = %1
  br label %10

10:                                               ; preds = %9, %8
  %11 = phi ptr [ %3, %8 ], [ null, %9 ]
  ret ptr %11
}

; Function Attrs: mustprogress uwtable
define dso_local void @_ZN4Luau20DataFlowGraphBuilder11visitLValueEPNS_7AstExprENS_7NotNullIKNS_3DefEEE(ptr noundef nonnull align 8 dereferenceable(336) %0, ptr noundef %1, ptr %2) #2 align 2 {
  %4 = alloca %"struct.Luau::NotNull", align 8
  %5 = alloca ptr, align 8
  %6 = alloca ptr, align 8
  %7 = alloca %class.anon.122, align 8
  %8 = alloca %"struct.Luau::NotNull", align 8
  %9 = getelementptr inbounds nuw %"struct.Luau::NotNull", ptr %4, i32 0, i32 0
  store ptr %2, ptr %9, align 8
  store ptr %0, ptr %5, align 8, !tbaa !154
  store ptr %1, ptr %6, align 8, !tbaa !46
  %10 = load ptr, ptr %5, align 8
  call void @llvm.lifetime.start.p0(i64 24, ptr %7) #17
  %11 = getelementptr inbounds nuw %class.anon.122, ptr %7, i32 0, i32 0
  store ptr %6, ptr %11, align 8, !tbaa !54
  %12 = getelementptr inbounds nuw %class.anon.122, ptr %7, i32 0, i32 1
  store ptr %10, ptr %12, align 8, !tbaa !453
  %13 = getelementptr inbounds nuw %class.anon.122, ptr %7, i32 0, i32 2
  store ptr %4, ptr %13, align 8, !tbaa !71
  call void @llvm.lifetime.start.p0(i64 8, ptr %8) #17
  %14 = call ptr @"_ZZN4Luau20DataFlowGraphBuilder11visitLValueEPNS_7AstExprENS_7NotNullIKNS_3DefEEEENK3$_0clEv"(ptr noundef nonnull align 8 dereferenceable(24) %7)
  %15 = getelementptr inbounds nuw %"struct.Luau::NotNull", ptr %8, i32 0, i32 0
  store ptr %14, ptr %15, align 8
  %16 = call noundef ptr @_ZNK4Luau7NotNullIKNS_3DefEEcvPS2_Ev(ptr noundef nonnull align 8 dereferenceable(8) %8) #17
  %17 = getelementptr inbounds nuw %"struct.Luau::DataFlowGraphBuilder", ptr %10, i32 0, i32 0
  %18 = getelementptr inbounds nuw %"struct.Luau::DataFlowGraph", ptr %17, i32 0, i32 2
  %19 = call noundef nonnull align 8 dereferenceable(8) ptr @_ZN4Luau12DenseHashMapIPKNS_7AstExprEPKNS_3DefENS_16DenseHashPointerESt8equal_toIS3_EEixERKS3_(ptr noundef nonnull align 8 dereferenceable(40) %18, ptr noundef nonnull align 8 dereferenceable(8) %6)
  store ptr %16, ptr %19, align 8, !tbaa !23
  call void @llvm.lifetime.end.p0(i64 8, ptr %8) #17
  call void @llvm.lifetime.end.p0(i64 24, ptr %7) #17
  ret void
}

; Function Attrs: mustprogress nounwind uwtable
define linkonce_odr dso_local noundef ptr @_ZNK4Luau7NotNullINS_8DefArenaEEptEv(ptr noundef nonnull align 8 dereferenceable(8) %0) #4 comdat align 2 {
  %2 = alloca ptr, align 8
  store ptr %0, ptr %2, align 8, !tbaa !231
  %3 = load ptr, ptr %2, align 8
  %4 = getelementptr inbounds nuw %"struct.Luau::NotNull.5", ptr %3, i32 0, i32 0
  %5 = load ptr, ptr %4, align 8, !tbaa !233
  ret ptr %5
}

; Function Attrs: mustprogress uwtable
define dso_local noundef i32 @_ZN4Luau20DataFlowGraphBuilder5visitEPNS_15AstStatFunctionE(ptr noundef nonnull align 8 dereferenceable(336) %0, ptr noundef %1) #2 align 2 {
  %3 = alloca ptr, align 8
  %4 = alloca ptr, align 8
  %5 = alloca %"struct.Luau::NotNull", align 8
  %6 = alloca %"struct.Luau::DataFlowResult", align 8
  %7 = alloca ptr, align 8
  %8 = alloca ptr, align 8
  %9 = alloca %"struct.Luau::Symbol", align 8
  store ptr %0, ptr %3, align 8, !tbaa !154
  store ptr %1, ptr %4, align 8, !tbaa !312
  %10 = load ptr, ptr %3, align 8
  %11 = load ptr, ptr %4, align 8, !tbaa !312
  %12 = getelementptr inbounds nuw %"class.Luau::AstStatFunction", ptr %11, i32 0, i32 1
  %13 = load ptr, ptr %12, align 8, !tbaa !383
  %14 = getelementptr inbounds nuw %"struct.Luau::DataFlowGraphBuilder", ptr %10, i32 0, i32 1
  %15 = call noundef ptr @_ZNK4Luau7NotNullINS_8DefArenaEEptEv(ptr noundef nonnull align 8 dereferenceable(8) %14) #17
  %16 = call ptr @_ZN4Luau8DefArena9freshCellEb(ptr noundef nonnull align 8 dereferenceable(40) %15, i1 noundef zeroext false)
  %17 = getelementptr inbounds nuw %"struct.Luau::NotNull", ptr %5, i32 0, i32 0
  store ptr %16, ptr %17, align 8
  %18 = getelementptr inbounds nuw %"struct.Luau::NotNull", ptr %5, i32 0, i32 0
  %19 = load ptr, ptr %18, align 8
  call void @_ZN4Luau20DataFlowGraphBuilder11visitLValueEPNS_7AstExprENS_7NotNullIKNS_3DefEEE(ptr noundef nonnull align 8 dereferenceable(336) %10, ptr noundef %13, ptr %19)
  %20 = load ptr, ptr %4, align 8, !tbaa !312
  %21 = getelementptr inbounds nuw %"class.Luau::AstStatFunction", ptr %20, i32 0, i32 2
  %22 = load ptr, ptr %21, align 8, !tbaa !386
  %23 = call { ptr, ptr } @_ZN4Luau20DataFlowGraphBuilder9visitExprEPNS_15AstExprFunctionE(ptr noundef nonnull align 8 dereferenceable(336) %10, ptr noundef %22)
  %24 = getelementptr inbounds nuw { ptr, ptr }, ptr %6, i32 0, i32 0
  %25 = extractvalue { ptr, ptr } %23, 0
  store ptr %25, ptr %24, align 8
  %26 = getelementptr inbounds nuw { ptr, ptr }, ptr %6, i32 0, i32 1
  %27 = extractvalue { ptr, ptr } %23, 1
  store ptr %27, ptr %26, align 8
  call void @llvm.lifetime.start.p0(i64 8, ptr %7) #17
  %28 = load ptr, ptr %4, align 8, !tbaa !312
  %29 = getelementptr inbounds nuw %"class.Luau::AstStatFunction", ptr %28, i32 0, i32 1
  %30 = load ptr, ptr %29, align 8, !tbaa !383
  %31 = call noundef ptr @_ZN4Luau7AstNode2asINS_12AstExprLocalEEEPT_v(ptr noundef nonnull align 8 dereferenceable(28) %30)
  store ptr %31, ptr %7, align 8, !tbaa !387
  %32 = load ptr, ptr %7, align 8, !tbaa !387
  %33 = icmp ne ptr %32, null
  br i1 %33, label %34, label %46

34:                                               ; preds = %2
  call void @llvm.lifetime.start.p0(i64 8, ptr %8) #17
  %35 = getelementptr inbounds nuw %"struct.Luau::DataFlowGraphBuilder", ptr %10, i32 0, i32 6
  call void @llvm.lifetime.start.p0(i64 16, ptr %9) #17
  %36 = load ptr, ptr %7, align 8, !tbaa !387
  %37 = getelementptr inbounds nuw %"class.Luau::AstExprLocal", ptr %36, i32 0, i32 2
  %38 = load ptr, ptr %37, align 8, !tbaa !389
  call void @_ZN4Luau6SymbolC2EPNS_8AstLocalE(ptr noundef nonnull align 8 dereferenceable(16) %9, ptr noundef %38)
  %39 = call noundef nonnull align 8 dereferenceable(56) ptr @_ZN4Luau12DenseHashMapINS_6SymbolENS_20DataFlowGraphBuilder15FunctionCaptureESt4hashIS1_ESt8equal_toIS1_EEixERKS1_(ptr noundef nonnull align 8 dereferenceable(48) %35, ptr noundef nonnull align 8 dereferenceable(16) %9)
  call void @llvm.lifetime.end.p0(i64 16, ptr %9) #17
  store ptr %39, ptr %8, align 8, !tbaa !212
  %40 = load ptr, ptr %8, align 8, !tbaa !212
  %41 = getelementptr inbounds nuw %"struct.Luau::DataFlowGraphBuilder::FunctionCapture", ptr %40, i32 0, i32 1
  %42 = call noundef i64 @_ZNKSt6vectorIN4Luau7NotNullIKNS0_3DefEEESaIS4_EE4sizeEv(ptr noundef nonnull align 8 dereferenceable(24) %41) #17
  %43 = sub i64 %42, 1
  %44 = load ptr, ptr %8, align 8, !tbaa !212
  %45 = getelementptr inbounds nuw %"struct.Luau::DataFlowGraphBuilder::FunctionCapture", ptr %44, i32 0, i32 2
  store i64 %43, ptr %45, align 8, !tbaa !214
  call void @llvm.lifetime.end.p0(i64 8, ptr %8) #17
  br label %46

46:                                               ; preds = %34, %2
  call void @llvm.lifetime.end.p0(i64 8, ptr %7) #17
  ret i32 1
}