; Function Attrs: mustprogress uwtable
define dso_local noundef i32 @_ZN4Luau20DataFlowGraphBuilder5visitEPNS_15AstStatFunctionE(ptr noundef nonnull align 8 dereferenceable(336) %0, ptr noundef readonly captures(none) %1) local_unnamed_addr #2 align 2 {
  %3 = alloca %"struct.Luau::NotNull", align 8
  %4 = alloca ptr, align 8
  %5 = alloca %class.anon.122, align 8
  %6 = alloca %"struct.Luau::Symbol", align 8
  %7 = getelementptr inbounds nuw i8, ptr %1, i64 32
  %8 = load ptr, ptr %7, align 8, !tbaa !332
  %9 = getelementptr inbounds nuw i8, ptr %0, i64 216
  %10 = load ptr, ptr %9, align 8, !tbaa !182
  %11 = tail call ptr @_ZN4Luau8DefArena9freshCellEb(ptr noundef nonnull align 8 dereferenceable(40) %10, i1 noundef zeroext false)
  call void @llvm.lifetime.start.p0(i64 8, ptr nonnull %3)
  call void @llvm.lifetime.start.p0(i64 8, ptr nonnull %4)
  store ptr %11, ptr %3, align 8
  store ptr %8, ptr %4, align 8, !tbaa !53
  call void @llvm.lifetime.start.p0(i64 24, ptr nonnull %5) #26
  store ptr %4, ptr %5, align 8, !tbaa !323
  %12 = getelementptr inbounds nuw i8, ptr %5, i64 8
  store ptr %0, ptr %12, align 8, !tbaa !324
  %13 = getelementptr inbounds nuw i8, ptr %5, i64 16
  store ptr %3, ptr %13, align 8, !tbaa !216
  %14 = call fastcc ptr @"_ZZN4Luau20DataFlowGraphBuilder11visitLValueEPNS_7AstExprENS_7NotNullIKNS_3DefEEEENK3$_0clEv"(ptr noundef nonnull align 8 dereferenceable(24) %5)
  %15 = getelementptr inbounds nuw i8, ptr %0, i64 16
  %16 = call noundef nonnull align 8 dereferenceable(8) ptr @_ZN4Luau12DenseHashMapIPKNS_7AstExprEPKNS_3DefENS_16DenseHashPointerESt8equal_toIS3_EEixERKS3_(ptr noundef nonnull align 8 dereferenceable(40) %15, ptr noundef nonnull align 8 dereferenceable(8) %4)
  store ptr %14, ptr %16, align 8, !tbaa !20
  call void @llvm.lifetime.end.p0(i64 24, ptr nonnull %5) #26
  call void @llvm.lifetime.end.p0(i64 8, ptr nonnull %3)
  call void @llvm.lifetime.end.p0(i64 8, ptr nonnull %4)
  %17 = getelementptr inbounds nuw i8, ptr %1, i64 40
  %18 = load ptr, ptr %17, align 8, !tbaa !335
  %19 = call { ptr, ptr } @_ZN4Luau20DataFlowGraphBuilder9visitExprEPNS_15AstExprFunctionE(ptr noundef nonnull align 8 dereferenceable(336) %0, ptr noundef %18)
  %20 = load ptr, ptr %7, align 8, !tbaa !332
  %21 = getelementptr inbounds nuw i8, ptr %20, i64 8
  %22 = load i32, ptr %21, align 8, !tbaa !246
  %23 = load i32, ptr @_ZN4Luau7AstRttiINS_12AstExprLocalEE5valueE, align 4, !tbaa !4
  %24 = icmp ne i32 %22, %23
  %.not9 = icmp eq ptr %20, null
  %.not = or i1 %.not9, %24
  br i1 %.not, label %50, label %25

25:                                               ; preds = %2
  %26 = getelementptr inbounds nuw i8, ptr %0, i64 288
  call void @llvm.lifetime.start.p0(i64 16, ptr nonnull %6) #26
  %27 = getelementptr inbounds nuw i8, ptr %20, i64 32
  %28 = load ptr, ptr %27, align 8, !tbaa !336
  store ptr %28, ptr %6, align 8, !tbaa !109
  %29 = getelementptr inbounds nuw i8, ptr %6, i64 8
  store ptr null, ptr %29, align 8, !tbaa !287
  %30 = getelementptr inbounds nuw i8, ptr %0, i64 304
  %31 = load i64, ptr %30, align 8, !tbaa !227
  %32 = getelementptr inbounds nuw i8, ptr %0, i64 296
  %33 = load i64, ptr %32, align 8, !tbaa !204
  %34 = mul i64 %33, 3
  %35 = lshr i64 %34, 2
  %.not.i.i = icmp ult i64 %31, %35
  br i1 %.not.i.i, label %_ZN4Luau12DenseHashMapINS_6SymbolENS_20DataFlowGraphBuilder15FunctionCaptureESt4hashIS1_ESt8equal_toIS1_EEixERKS1_.exit, label %36

36:                                               ; preds = %25
  %37 = call noundef ptr @_ZNK4Luau6detail14DenseHashTableINS_6SymbolESt4pairIS2_NS_20DataFlowGraphBuilder15FunctionCaptureEES3_IKS2_S5_ENS0_16ItemInterfaceMapIS2_S5_EESt4hashIS2_ESt8equal_toIS2_EE4findERS7_(ptr noundef nonnull align 8 dereferenceable(48) %26, ptr noundef nonnull align 8 dereferenceable(16) %6)
  %.not2.i.i = icmp eq ptr %37, null
  br i1 %.not2.i.i, label %38, label %_ZN4Luau12DenseHashMapINS_6SymbolENS_20DataFlowGraphBuilder15FunctionCaptureESt4hashIS1_ESt8equal_toIS1_EEixERKS1_.exit

38:                                               ; preds = %36
  call void @_ZN4Luau6detail14DenseHashTableINS_6SymbolESt4pairIS2_NS_20DataFlowGraphBuilder15FunctionCaptureEES3_IKS2_S5_ENS0_16ItemInterfaceMapIS2_S5_EESt4hashIS2_ESt8equal_toIS2_EE6rehashEv(ptr noundef nonnull align 8 dereferenceable(48) %26)
  br label %_ZN4Luau12DenseHashMapINS_6SymbolENS_20DataFlowGraphBuilder15FunctionCaptureESt4hashIS1_ESt8equal_toIS1_EEixERKS1_.exit

_ZN4Luau12DenseHashMapINS_6SymbolENS_20DataFlowGraphBuilder15FunctionCaptureESt4hashIS1_ESt8equal_toIS1_EEixERKS1_.exit: ; preds = %25, %36, %38
  %39 = call noundef ptr @_ZN4Luau6detail14DenseHashTableINS_6SymbolESt4pairIS2_NS_20DataFlowGraphBuilder15FunctionCaptureEES3_IKS2_S5_ENS0_16ItemInterfaceMapIS2_S5_EESt4hashIS2_ESt8equal_toIS2_EE13insert_unsafeERS7_(ptr noundef nonnull align 8 dereferenceable(48) %26, ptr noundef nonnull align 8 dereferenceable(16) %6)
  call void @llvm.lifetime.end.p0(i64 16, ptr nonnull %6) #26
  %40 = getelementptr inbounds nuw i8, ptr %39, i64 40
  %41 = getelementptr inbounds nuw i8, ptr %39, i64 48
  %42 = load ptr, ptr %41, align 8, !tbaa !214
  %43 = load ptr, ptr %40, align 8, !tbaa !215
  %44 = ptrtoint ptr %42 to i64
  %45 = ptrtoint ptr %43 to i64
  %46 = sub i64 %44, %45
  %47 = ashr exact i64 %46, 3
  %48 = add nsw i64 %47, -1
  %49 = getelementptr inbounds nuw i8, ptr %39, i64 64
  store i64 %48, ptr %49, align 8, !tbaa !207
  br label %50

50:                                               ; preds = %_ZN4Luau12DenseHashMapINS_6SymbolENS_20DataFlowGraphBuilder15FunctionCaptureESt4hashIS1_ESt8equal_toIS1_EEixERKS1_.exit, %2
  ret i32 1
}